target datalayout = "e-m:e-p270:32:32-p271:32:32-p272:64:64-i64:64-i128:128-f80:128-n8:16:32:64-S128"
target triple = "x86_64-pc-linux-gnu"

; Function Attrs: nounwind uwtable
define i32 @calcLog2(i64 noundef %0) #0 {
  %2 = alloca i64, align 8
  %3 = alloca i32, align 4
  store i64 %0, ptr %2, align 8, !tbaa !34
  call void @llvm.lifetime.start.p0(i64 4, ptr %3) #7
  store i32 0, ptr %3, align 4, !tbaa !9
  br label %4

4:                                                ; preds = %8, %1
  %5 = load i64, ptr %2, align 8, !tbaa !34
  %6 = lshr i64 %5, 1
  store i64 %6, ptr %2, align 8, !tbaa !34
  %7 = icmp ne i64 %6, 0
  br i1 %7, label %8, label %11

8:                                                ; preds = %4
  %9 = load i32, ptr %3, align 4, !tbaa !9
  %10 = add i32 %9, 1
  store i32 %10, ptr %3, align 4, !tbaa !9
  br label %4

11:                                               ; preds = %4
  %12 = load i32, ptr %3, align 4, !tbaa !9
  call void @llvm.lifetime.end.p0(i64 4, ptr %3) #7
  ret i32 %12
}

; Function Attrs: nounwind uwtable
define void @QuESTAssert(i32 noundef %0, i32 noundef %1, ptr noundef %2) #0 {
  %4 = alloca i32, align 4
  %5 = alloca i32, align 4
  %6 = alloca ptr, align 8
  store i32 %0, ptr %4, align 4, !tbaa !9
  store i32 %1, ptr %5, align 4, !tbaa !9
  store ptr %2, ptr %6, align 8, !tbaa !4
  %7 = load i32, ptr %4, align 4, !tbaa !9
  %8 = icmp ne i32 %7, 0
  br i1 %8, label %15, label %9

9:                                                ; preds = %3
  %10 = load i32, ptr %5, align 4, !tbaa !9
  %11 = zext i32 %10 to i64
  %12 = getelementptr inbounds nuw [92 x ptr], ptr @errorMessages, i64 0, i64 %11
  %13 = load ptr, ptr %12, align 8, !tbaa !4
  %14 = load ptr, ptr %6, align 8, !tbaa !4
  call void @invalidQuESTInputError(ptr noundef %13, ptr noundef %14)
  br label %15

15:                                               ; preds = %9, %3
  ret void
}

; Function Attrs: nounwind uwtable
define void @validateNumQubitsInQureg(i32 noundef %0, i32 noundef %1, ptr noundef %2) #0 {
  %4 = alloca i32, align 4
  %5 = alloca i32, align 4
  %6 = alloca ptr, align 8
  %7 = alloca i32, align 4
  %8 = alloca i64, align 8
  store i32 %0, ptr %4, align 4, !tbaa !9
  store i32 %1, ptr %5, align 4, !tbaa !9
  store ptr %2, ptr %6, align 8, !tbaa !4
  %9 = load i32, ptr %4, align 4, !tbaa !9
  %10 = icmp sgt i32 %9, 0
  %11 = zext i1 %10 to i32
  %12 = load ptr, ptr %6, align 8, !tbaa !4
  call void @QuESTAssert(i32 noundef %11, i32 noundef 2, ptr noundef %12)
  call void @llvm.lifetime.start.p0(i64 4, ptr %7) #7
  %13 = call i32 @calcLog2(i64 noundef -1)
  store i32 %13, ptr %7, align 4, !tbaa !9
  %14 = load i32, ptr %4, align 4, !tbaa !9
  %15 = load i32, ptr %7, align 4, !tbaa !9
  %16 = icmp ule i32 %14, %15
  %17 = zext i1 %16 to i32
  %18 = load ptr, ptr %6, align 8, !tbaa !4
  call void @QuESTAssert(i32 noundef %17, i32 noundef 56, ptr noundef %18)
  call void @llvm.lifetime.start.p0(i64 8, ptr %8) #7
  %19 = load i32, ptr %4, align 4, !tbaa !9
  %20 = zext i32 %19 to i64
  %21 = shl i64 1, %20
  store i64 %21, ptr %8, align 8, !tbaa !34
  %22 = load i64, ptr %8, align 8, !tbaa !34
  %23 = load i32, ptr %5, align 4, !tbaa !9
  %24 = sext i32 %23 to i64
  %25 = icmp uge i64 %22, %24
  %26 = zext i1 %25 to i32
  %27 = load ptr, ptr %6, align 8, !tbaa !4
  call void @QuESTAssert(i32 noundef %26, i32 noundef 54, ptr noundef %27)
  call void @llvm.lifetime.end.p0(i64 8, ptr %8) #7
  call void @llvm.lifetime.end.p0(i64 4, ptr %7) #7
  ret void
}