; Function Attrs: nounwind uwtable
define void @validateNumQubitsInQureg(i32 noundef %0, i32 noundef %1, ptr noundef %2) local_unnamed_addr #3 {
  %4 = icmp slt i32 %0, 1
  br i1 %4, label %5, label %QuESTAssert.exit

5:                                                ; preds = %3
  tail call void @invalidQuESTInputError(ptr noundef nonnull @.str.4, ptr noundef %2)
  br label %QuESTAssert.exit

QuESTAssert.exit:                                 ; preds = %3, %5
  %6 = icmp ugt i32 %0, 63
  br i1 %6, label %7, label %QuESTAssert.exit9

7:                                                ; preds = %QuESTAssert.exit
  tail call void @invalidQuESTInputError(ptr noundef nonnull @.str.58, ptr noundef %2)
  br label %QuESTAssert.exit9

QuESTAssert.exit9:                                ; preds = %QuESTAssert.exit, %7
  %8 = zext nneg i32 %0 to i64
  %9 = shl nuw i64 1, %8
  %10 = sext i32 %1 to i64
  %.not = icmp ult i64 %9, %10
  br i1 %.not, label %11, label %QuESTAssert.exit11

11:                                               ; preds = %QuESTAssert.exit9
  tail call void @invalidQuESTInputError(ptr noundef nonnull @.str.56, ptr noundef %2)
  br label %QuESTAssert.exit11

QuESTAssert.exit11:                               ; preds = %QuESTAssert.exit9, %11
  ret void
}